; Function Attrs: nounwind uwtable
define internal void @SDL_MouseAutoCaptureChanged(ptr noundef captures(none) %0, ptr readnone captures(none) %1, ptr readnone captures(none) %2, ptr noundef %3) #0 {
  %5 = tail call zeroext i1 @SDL_GetStringBoolean(ptr noundef %3, i1 noundef zeroext true) #13
  %6 = getelementptr inbounds nuw i8, ptr %0, i64 235
  %7 = load i8, ptr %6, align 1, !range !3, !noundef !4
  %8 = zext i1 %5 to i8
  %.not = icmp eq i8 %7, %8
  br i1 %.not, label %11, label %9

9:                                                ; preds = %4
  store i8 %8, ptr %6, align 1
  %10 = tail call zeroext i1 @SDL_UpdateMouseCapture(i1 noundef zeroext false)
  br label %11

11:                                               ; preds = %9, %4
  ret void
}